; ModuleID = 'source-C-CXX/57/724.c'
source_filename = "source-C-CXX/57/724.c"
target datalayout = "e-m:e-p270:32:32-p271:32:32-p272:64:64-i64:64-f80:128-n8:16:32:64-S128"
target triple = "x86_64-pc-linux-gnu"

@.str = private unnamed_addr constant [3 x i8] c"%d\00", align 1
@.str.1 = private unnamed_addr constant [4 x i8] c"%d\0A\00", align 1

; Function Attrs: nounwind sspstrong uwtable
define dso_local i32 @main() local_unnamed_addr #0 {
  %1 = alloca i32, align 4
  %2 = alloca [81 x i8], align 16
  %3 = bitcast i32* %1 to i8*
  call void @llvm.lifetime.start.p0i8(i64 4, i8* nonnull %3) #5
  %4 = getelementptr inbounds [81 x i8], [81 x i8]* %2, i64 0, i64 0
  call void @llvm.lifetime.start.p0i8(i64 81, i8* nonnull %4) #5
  %5 = call i32 (i8*, ...) @__isoc99_scanf(i8* getelementptr inbounds ([3 x i8], [3 x i8]* @.str, i64 0, i64 0), i32* nonnull %1)
  %6 = call i32 (i8*, ...) bitcast (i32 (...)* @gets to i32 (i8*, ...)*)(i8* nonnull %4) #5
  %7 = load i32, i32* %1, align 4, !tbaa !5
  %8 = icmp sgt i32 %7, 0
  br i1 %8, label %9, label %45

9:                                                ; preds = %0, %35
  %10 = phi i32 [ %40, %35 ], [ undef, %0 ]
  %11 = phi i32 [ %42, %35 ], [ 0, %0 ]
  %12 = call i32 (i8*, ...) bitcast (i32 (...)* @gets to i32 (i8*, ...)*)(i8* nonnull %4) #5
  %13 = call i64 @strlen(i8* noundef nonnull %4) #6
  %14 = trunc i64 %13 to i32
  %15 = icmp sgt i32 %14, 0
  br i1 %15, label %16, label %35

16:                                               ; preds = %9
  %17 = and i64 %13, 4294967295
  br label %18

18:                                               ; preds = %16, %32
  %19 = phi i64 [ 0, %16 ], [ %33, %32 ]
  %20 = getelementptr inbounds [81 x i8], [81 x i8]* %2, i64 0, i64 %19
  %21 = load i8, i8* %20, align 1, !tbaa !9
  %22 = add i8 %21, -48
  %23 = icmp ult i8 %22, 10
  %24 = add i8 %21, -65
  %25 = icmp ult i8 %24, 26
  %26 = or i1 %23, %25
  br i1 %26, label %32, label %27

27:                                               ; preds = %18
  %28 = add i8 %21, -97
  %29 = icmp ult i8 %28, 26
  %30 = icmp eq i8 %21, 95
  %31 = or i1 %30, %29
  br i1 %31, label %32, label %35

32:                                               ; preds = %27, %18
  %33 = add nuw nsw i64 %19, 1
  %34 = icmp eq i64 %33, %17
  br i1 %34, label %35, label %18, !llvm.loop !10

35:                                               ; preds = %32, %27, %9
  %36 = phi i32 [ %10, %9 ], [ 0, %27 ], [ 1, %32 ]
  %37 = load i8, i8* %4, align 16, !tbaa !9
  %38 = add i8 %37, -48
  %39 = icmp ult i8 %38, 10
  %40 = select i1 %39, i32 0, i32 %36
  %41 = call i32 (i8*, ...) @printf(i8* nonnull dereferenceable(1) getelementptr inbounds ([4 x i8], [4 x i8]* @.str.1, i64 0, i64 0), i32 %40)
  %42 = add nuw nsw i32 %11, 1
  %43 = load i32, i32* %1, align 4, !tbaa !5
  %44 = icmp slt i32 %42, %43
  br i1 %44, label %9, label %45, !llvm.loop !12

45:                                               ; preds = %35, %0
  call void @llvm.lifetime.end.p0i8(i64 81, i8* nonnull %4) #5
  call void @llvm.lifetime.end.p0i8(i64 4, i8* nonnull %3) #5
  ret i32 0
}

; Function Attrs: argmemonly mustprogress nofree nosync nounwind willreturn
declare void @llvm.lifetime.start.p0i8(i64 immarg, i8* nocapture) #1

; Function Attrs: nofree nounwind
declare noundef i32 @__isoc99_scanf(i8* nocapture noundef readonly, ...) local_unnamed_addr #2

declare i32 @gets(...) local_unnamed_addr #3

; Function Attrs: argmemonly mustprogress nofree nounwind readonly willreturn
declare i64 @strlen(i8* nocapture) local_unnamed_addr #4

; Function Attrs: nofree nounwind
declare noundef i32 @printf(i8* nocapture noundef readonly, ...) local_unnamed_addr #2

; Function Attrs: argmemonly mustprogress nofree nosync nounwind willreturn
declare void @llvm.lifetime.end.p0i8(i64 immarg, i8* nocapture) #1


!llvm.module.flags = !{!0, !1, !2, !3}
!llvm.ident = !{!4}

!0 = !{i32 1, !"wchar_size", i32 4}
!1 = !{i32 7, !"PIC Level", i32 2}
!2 = !{i32 7, !"PIE Level", i32 2}
!3 = !{i32 7, !"uwtable", i32 1}
!4 = !{!"clang version 13.0.0"}
!5 = !{!6, !6, i64 0}
!6 = !{!"int", !7, i64 0}
!7 = !{!"omnipotent char", !8, i64 0}
!8 = !{!"Simple C/C++ TBAA"}
!9 = !{!7, !7, i64 0}
!10 = distinct !{!10, !11}
!11 = !{!"llvm.loop.mustprogress"}
!12 = distinct !{!12, !11}
